; Function Attrs: nounwind uwtable
define internal ptr @EVP_repr(ptr noundef %0) #0 {
  %2 = getelementptr inbounds nuw i8, ptr %0, i64 16
  %3 = load ptr, ptr %2, align 8, !tbaa !62
  %4 = tail call ptr @EVP_MD_CTX_md(ptr noundef %3) #9
  %5 = tail call i32 @EVP_MD_get_type(ptr noundef %4) #9
  %6 = icmp eq i32 %5, 4
  br i1 %6, label %py_digest_name.exit, label %.lr.ph

.lr.ph:                                           ; preds = %1, %9
  %.015.i11 = phi ptr [ %7, %9 ], [ @py_hashes, %1 ]
  %7 = getelementptr i8, ptr %.015.i11, i64 48
  %8 = load ptr, ptr %7, align 8, !tbaa !13
  %.not.i9 = icmp eq ptr %8, null
  br i1 %.not.i9, label %13, label %9, !llvm.loop !18

9:                                                ; preds = %.lr.ph
  %10 = getelementptr i8, ptr %.015.i11, i64 72
  %11 = load i32, ptr %10, align 8, !tbaa !20
  %12 = icmp eq i32 %11, %5
  br i1 %12, label %py_digest_name.exit, label %.lr.ph, !llvm.loop !18

13:                                               ; preds = %.lr.ph
  %14 = tail call ptr @OBJ_nid2ln(i32 noundef %5) #9
  %15 = icmp eq ptr %14, null
  br i1 %15, label %16, label %py_digest_name.exit

16:                                               ; preds = %13
  %17 = tail call ptr @OBJ_nid2sn(i32 noundef %5) #9
  br label %py_digest_name.exit

py_digest_name.exit:                              ; preds = %9, %1, %13, %16
  %.1.i = phi ptr [ %17, %16 ], [ %14, %13 ], [ @.str.3, %1 ], [ %8, %9 ]
  %18 = tail call ptr @PyUnicode_FromString(ptr noundef %.1.i) #9
  %.not = icmp eq ptr %18, null
  br i1 %.not, label %Py_DECREF.exit, label %19

19:                                               ; preds = %py_digest_name.exit
  %20 = getelementptr i8, ptr %0, i64 8
  %.val = load ptr, ptr %20, align 8, !tbaa !22
  %21 = getelementptr inbounds nuw i8, ptr %.val, i64 24
  %22 = load ptr, ptr %21, align 8, !tbaa !58
  %23 = tail call ptr (ptr, ...) @PyUnicode_FromFormat(ptr noundef nonnull @.str.125, ptr noundef nonnull %18, ptr noundef %22, ptr noundef %0) #9
  %24 = load i32, ptr %18, align 8, !tbaa !21
  %.not.i = icmp sgt i32 %24, -1
  br i1 %.not.i, label %25, label %Py_DECREF.exit

25:                                               ; preds = %19
  %26 = add nsw i32 %24, -1
  store i32 %26, ptr %18, align 8, !tbaa !21
  %27 = icmp eq i32 %26, 0
  br i1 %27, label %28, label %Py_DECREF.exit

28:                                               ; preds = %25
  tail call void @_Py_Dealloc(ptr noundef nonnull %18) #9
  br label %Py_DECREF.exit

Py_DECREF.exit:                                   ; preds = %28, %25, %19, %py_digest_name.exit
  %.0 = phi ptr [ null, %py_digest_name.exit ], [ %23, %19 ], [ %23, %25 ], [ %23, %28 ]
  ret ptr %.0
}